; Function Attrs: nounwind uwtable
define dso_local void @tuplestore_puttuple(ptr noundef %0, ptr noundef %1) local_unnamed_addr #0 {
  %3 = getelementptr inbounds nuw i8, ptr %0, i64 56
  %4 = load ptr, ptr %3, align 8
  %5 = load ptr, ptr @CurrentMemoryContext, align 8
  store ptr %4, ptr @CurrentMemoryContext, align 8
  %6 = getelementptr inbounds nuw i8, ptr %0, i64 72
  %7 = load ptr, ptr %6, align 8
  %8 = tail call ptr %7(ptr noundef %0, ptr noundef %1) #9
  tail call fastcc void @tuplestore_puttuple_common(ptr noundef %0, ptr noundef %8)
  store ptr %5, ptr @CurrentMemoryContext, align 8
  ret void
}